target datalayout = "e-m:e-p270:32:32-p271:32:32-p272:64:64-i64:64-i128:128-f80:128-n8:16:32:64-S128"
target triple = "x86_64-pc-linux-gnu"

%struct.pg_enc2name = type { ptr, i32 }

@backend_startup_complete = internal global i8 0, align 1
@TopMemoryContext = external global ptr, align 8
@pending_client_encoding = internal global i32 0, align 4
@pg_enc2name_tbl = external constant [0 x %struct.pg_enc2name], align 8
@.str = private unnamed_addr constant [46 x i8] c"conversion between %s and %s is not supported\00", align 1
@.str.1 = private unnamed_addr constant [10 x i8] c"mbutils.c\00", align 1
@__func__.InitializeClientEncoding = private unnamed_addr constant [25 x i8] c"InitializeClientEncoding\00", align 1
@Utf8ToServerConvProc = internal global ptr null, align 8
@DatabaseEncoding = internal global ptr @pg_enc2name_tbl, align 8

; Function Attrs: nounwind uwtable
define dso_local i32 @GetDatabaseEncoding() #1 {
  %1 = load ptr, ptr @DatabaseEncoding, align 8
  %2 = getelementptr inbounds nuw %struct.pg_enc2name, ptr %1, i32 0, i32 1
  %3 = load i32, ptr %2, align 8
  ret i32 %3
}

; Function Attrs: nounwind uwtable
define dso_local ptr @GetDatabaseEncodingName() #1 {
  %1 = load ptr, ptr @DatabaseEncoding, align 8
  %2 = getelementptr inbounds nuw %struct.pg_enc2name, ptr %1, i32 0, i32 0
  %3 = load ptr, ptr %2, align 8
  ret ptr %3
}

; Function Attrs: nounwind uwtable
define dso_local void @InitializeClientEncoding() #1 {
  %1 = alloca i32, align 4
  %2 = alloca i32, align 4
  %3 = alloca ptr, align 8
  call void @llvm.lifetime.start.p0(i64 4, ptr %1) #9
  store i8 1, ptr @backend_startup_complete, align 1
  %4 = load i32, ptr @pending_client_encoding, align 4
  %5 = call i32 @PrepareClientEncoding(i32 noundef %4)
  %6 = icmp slt i32 %5, 0
  br i1 %6, label %11, label %7

7:                                                ; preds = %0
  %8 = load i32, ptr @pending_client_encoding, align 4
  %9 = call i32 @SetClientEncoding(i32 noundef %8)
  %10 = icmp slt i32 %9, 0
  br i1 %10, label %11, label %29

11:                                               ; preds = %7, %0
  br label %12

12:                                               ; preds = %11
  br i1 true, label %13, label %15

13:                                               ; preds = %12
  %14 = call zeroext i1 @errstart_cold(i32 noundef 22, ptr noundef null) #10
  br i1 %14, label %17, label %26

15:                                               ; preds = %12
  %16 = call zeroext i1 @errstart(i32 noundef 22, ptr noundef null)
  br i1 %16, label %17, label %26

17:                                               ; preds = %15, %13
  %18 = call i32 @errcode(i32 noundef 1088)
  %19 = load i32, ptr @pending_client_encoding, align 4
  %20 = sext i32 %19 to i64
  %21 = getelementptr inbounds [0 x %struct.pg_enc2name], ptr @pg_enc2name_tbl, i64 0, i64 %20
  %22 = getelementptr inbounds nuw %struct.pg_enc2name, ptr %21, i32 0, i32 0
  %23 = load ptr, ptr %22, align 8
  %24 = call ptr @GetDatabaseEncodingName()
  %25 = call i32 (ptr, ...) @errmsg(ptr noundef @.str, ptr noundef %23, ptr noundef %24)
  call void @errfinish(ptr noundef @.str.1, i32 noundef 299, ptr noundef @__func__.InitializeClientEncoding)
  br label %26

26:                                               ; preds = %17, %15, %13
  unreachable

27:                                               ; No predecessors!
  br label %28

28:                                               ; preds = %27
  br label %29

29:                                               ; preds = %28, %7
  %30 = call i32 @GetDatabaseEncoding()
  store i32 %30, ptr %1, align 4
  %31 = load i32, ptr %1, align 4
  %32 = icmp ne i32 %31, 6
  br i1 %32, label %33, label %49

33:                                               ; preds = %29
  %34 = load i32, ptr %1, align 4
  %35 = icmp ne i32 %34, 0
  br i1 %35, label %36, label %49

36:                                               ; preds = %33
  call void @llvm.lifetime.start.p0(i64 4, ptr %2) #9
  %37 = load i32, ptr %1, align 4
  %38 = call i32 @FindDefaultConversionProc(i32 noundef 6, i32 noundef %37)
  store i32 %38, ptr %2, align 4
  %39 = load i32, ptr %2, align 4
  %40 = icmp ne i32 %39, 0
  br i1 %40, label %41, label %48

41:                                               ; preds = %36
  call void @llvm.lifetime.start.p0(i64 8, ptr %3) #9
  %42 = load ptr, ptr @TopMemoryContext, align 8
  %43 = call ptr @MemoryContextAlloc(ptr noundef %42, i64 noundef 48)
  store ptr %43, ptr %3, align 8
  %44 = load i32, ptr %2, align 4
  %45 = load ptr, ptr %3, align 8
  %46 = load ptr, ptr @TopMemoryContext, align 8
  call void @fmgr_info_cxt(i32 noundef %44, ptr noundef %45, ptr noundef %46)
  %47 = load ptr, ptr %3, align 8
  store ptr %47, ptr @Utf8ToServerConvProc, align 8
  call void @llvm.lifetime.end.p0(i64 8, ptr %3) #9
  br label %48

48:                                               ; preds = %41, %36
  call void @llvm.lifetime.end.p0(i64 4, ptr %2) #9
  br label %49

49:                                               ; preds = %48, %33, %29
  call void @llvm.lifetime.end.p0(i64 4, ptr %1) #9
  ret void
}