; Function Attrs: nounwind uwtable
define dso_local void @InitializeClientEncoding() local_unnamed_addr #0 {
  store i1 true, ptr @backend_startup_complete, align 1
  %1 = load i32, ptr @pending_client_encoding, align 4
  %2 = tail call i32 @PrepareClientEncoding(i32 noundef %1)
  %3 = icmp slt i32 %2, 0
  br i1 %3, label %8, label %4

4:                                                ; preds = %0
  %5 = load i32, ptr @pending_client_encoding, align 4
  %6 = tail call i32 @SetClientEncoding(i32 noundef %5)
  %7 = icmp slt i32 %6, 0
  br i1 %7, label %8, label %18

8:                                                ; preds = %4, %0
  %9 = tail call zeroext i1 @errstart_cold(i32 noundef 22, ptr noundef null) #14
  tail call void @llvm.assume(i1 %9)
  %10 = tail call i32 @errcode(i32 noundef 1088) #13
  %11 = load i32, ptr @pending_client_encoding, align 4
  %12 = zext nneg i32 %11 to i64
  %13 = getelementptr inbounds nuw [0 x %struct.pg_enc2name], ptr @pg_enc2name_tbl, i64 0, i64 %12
  %14 = load ptr, ptr %13, align 8
  %15 = load ptr, ptr @DatabaseEncoding, align 8
  %16 = load ptr, ptr %15, align 8
  %17 = tail call i32 (ptr, ...) @errmsg(ptr noundef nonnull @.str, ptr noundef %14, ptr noundef %16) #13
  tail call void @errfinish(ptr noundef nonnull @.str.1, i32 noundef 299, ptr noundef nonnull @__func__.InitializeClientEncoding) #13
  unreachable

18:                                               ; preds = %4
  %19 = load ptr, ptr @DatabaseEncoding, align 8
  %20 = getelementptr inbounds nuw i8, ptr %19, i64 8
  %21 = load i32, ptr %20, align 8
  switch i32 %21, label %22 [
    i32 6, label %28
    i32 0, label %28
  ]

22:                                               ; preds = %18
  %23 = tail call i32 @FindDefaultConversionProc(i32 noundef 6, i32 noundef %21) #13
  %.not = icmp eq i32 %23, 0
  br i1 %.not, label %28, label %24

24:                                               ; preds = %22
  %25 = load ptr, ptr @TopMemoryContext, align 8
  %26 = tail call ptr @MemoryContextAlloc(ptr noundef %25, i64 noundef 48) #13
  %27 = load ptr, ptr @TopMemoryContext, align 8
  tail call void @fmgr_info_cxt(i32 noundef %23, ptr noundef %26, ptr noundef %27) #13
  store ptr %26, ptr @Utf8ToServerConvProc, align 8
  br label %28

28:                                               ; preds = %22, %24, %18, %18
  ret void
}